target datalayout = "e-m:e-p270:32:32-p271:32:32-p272:64:64-i64:64-i128:128-f80:128-n8:16:32:64-S128"
target triple = "x86_64-pc-linux-gnu"

%struct.KINMemRec = type { ptr, double, ptr, ptr, double, double, i32, i64, i64, i64, i64, i32, i32, i32, i32, i32, i32, i32, i32, double, double, double, double, double, double, double, double, double, i32, double, i64, i64, i64, i64, i64, i64, i64, ptr, ptr, ptr, ptr, ptr, ptr, ptr, ptr, ptr, ptr, ptr, i32, i32, double, ptr, ptr, ptr, ptr, ptr, double, ptr, ptr, ptr, ptr, i64, i64, i32, ptr, ptr, i32, ptr, ptr, i64, i64, i64, i64, ptr, ptr, ptr, ptr, i32, ptr, double, double, double, double, double, i32, double, double, double, i32 }
%struct.KINLsMemRec = type { i32, i32, i32, ptr, ptr, ptr, ptr, double, i64, i64, i64, i64, i64, i64, i64, i32, i32, ptr, ptr, ptr, ptr, i32, ptr, ptr, ptr }

; Function Attrs: nounwind uwtable
define i32 @kinLsDenseDQJac(ptr noundef %0, ptr noundef %1, ptr noundef %2, ptr noundef %3, ptr noundef %4, ptr noundef %5) #0 {
  %7 = alloca ptr, align 8
  %8 = alloca ptr, align 8
  %9 = alloca ptr, align 8
  %10 = alloca ptr, align 8
  %11 = alloca ptr, align 8
  %12 = alloca ptr, align 8
  %13 = alloca double, align 8
  %14 = alloca double, align 8
  %15 = alloca double, align 8
  %16 = alloca double, align 8
  %17 = alloca double, align 8
  %18 = alloca ptr, align 8
  %19 = alloca ptr, align 8
  %20 = alloca ptr, align 8
  %21 = alloca ptr, align 8
  %22 = alloca ptr, align 8
  %23 = alloca i64, align 8
  %24 = alloca i64, align 8
  %25 = alloca ptr, align 8
  %26 = alloca i32, align 4
  store ptr %0, ptr %7, align 8, !tbaa !85
  store ptr %1, ptr %8, align 8, !tbaa !85
  store ptr %2, ptr %9, align 8, !tbaa !9
  store ptr %3, ptr %10, align 8, !tbaa !11
  store ptr %4, ptr %11, align 8, !tbaa !85
  store ptr %5, ptr %12, align 8, !tbaa !85
  call void @llvm.lifetime.start.p0(i64 8, ptr %13) #7
  call void @llvm.lifetime.start.p0(i64 8, ptr %14) #7
  call void @llvm.lifetime.start.p0(i64 8, ptr %15) #7
  call void @llvm.lifetime.start.p0(i64 8, ptr %16) #7
  call void @llvm.lifetime.start.p0(i64 8, ptr %17) #7
  call void @llvm.lifetime.start.p0(i64 8, ptr %18) #7
  call void @llvm.lifetime.start.p0(i64 8, ptr %19) #7
  call void @llvm.lifetime.start.p0(i64 8, ptr %20) #7
  call void @llvm.lifetime.start.p0(i64 8, ptr %21) #7
  call void @llvm.lifetime.start.p0(i64 8, ptr %22) #7
  call void @llvm.lifetime.start.p0(i64 8, ptr %23) #7
  call void @llvm.lifetime.start.p0(i64 8, ptr %24) #7
  call void @llvm.lifetime.start.p0(i64 8, ptr %25) #7
  call void @llvm.lifetime.start.p0(i64 4, ptr %26) #7
  store i32 0, ptr %26, align 4, !tbaa !20
  %27 = load ptr, ptr %10, align 8, !tbaa !11
  %28 = getelementptr inbounds nuw %struct.KINMemRec, ptr %27, i32 0, i32 78
  %29 = load ptr, ptr %28, align 8, !tbaa !66
  store ptr %29, ptr %25, align 8, !tbaa !45
  %30 = load ptr, ptr %9, align 8, !tbaa !9
  %31 = call i64 @SUNDenseMatrix_Columns(ptr noundef %30)
  store i64 %31, ptr %24, align 8, !tbaa !114
  %32 = load ptr, ptr %12, align 8, !tbaa !85
  %33 = call ptr @N_VGetArrayPointer(ptr noundef %32)
  store ptr %33, ptr %18, align 8, !tbaa !86
  %34 = load ptr, ptr %11, align 8, !tbaa !85
  store ptr %34, ptr %21, align 8, !tbaa !85
  %35 = load ptr, ptr %12, align 8, !tbaa !85
  store ptr %35, ptr %22, align 8, !tbaa !85
  %36 = load ptr, ptr %7, align 8, !tbaa !85
  %37 = call ptr @N_VGetArrayPointer(ptr noundef %36)
  store ptr %37, ptr %19, align 8, !tbaa !86
  %38 = load ptr, ptr %10, align 8, !tbaa !11
  %39 = getelementptr inbounds nuw %struct.KINMemRec, ptr %38, i32 0, i32 41
  %40 = load ptr, ptr %39, align 8, !tbaa !99
  %41 = call ptr @N_VGetArrayPointer(ptr noundef %40)
  store ptr %41, ptr %20, align 8, !tbaa !86
  store i64 0, ptr %23, align 8, !tbaa !114
  br label %42

42:                                               ; preds = %115, %6
  %43 = load i64, ptr %23, align 8, !tbaa !114
  %44 = load i64, ptr %24, align 8, !tbaa !114
  %45 = icmp slt i64 %43, %44
  br i1 %45, label %46, label %118

46:                                               ; preds = %42
  %47 = load ptr, ptr %9, align 8, !tbaa !9
  %48 = load i64, ptr %23, align 8, !tbaa !114
  %49 = call ptr @SUNDenseMatrix_Column(ptr noundef %47, i64 noundef %48)
  %50 = load ptr, ptr %22, align 8, !tbaa !85
  call void @N_VSetArrayPointer(ptr noundef %49, ptr noundef %50)
  %51 = load ptr, ptr %19, align 8, !tbaa !86
  %52 = load i64, ptr %23, align 8, !tbaa !114
  %53 = getelementptr inbounds double, ptr %51, i64 %52
  %54 = load double, ptr %53, align 8, !tbaa !88
  store double %54, ptr %15, align 8, !tbaa !88
  %55 = load ptr, ptr %20, align 8, !tbaa !86
  %56 = load i64, ptr %23, align 8, !tbaa !114
  %57 = getelementptr inbounds double, ptr %55, i64 %56
  %58 = load double, ptr %57, align 8, !tbaa !88
  %59 = fdiv double 1.000000e+00, %58
  store double %59, ptr %16, align 8, !tbaa !88
  %60 = load double, ptr %15, align 8, !tbaa !88
  %61 = fcmp oge double %60, 0.000000e+00
  %62 = select i1 %61, double 1.000000e+00, double -1.000000e+00
  store double %62, ptr %17, align 8, !tbaa !88
  %63 = load ptr, ptr %10, align 8, !tbaa !11
  %64 = getelementptr inbounds nuw %struct.KINMemRec, ptr %63, i32 0, i32 21
  %65 = load double, ptr %64, align 8, !tbaa !100
  %66 = load double, ptr %15, align 8, !tbaa !88
  %67 = call double @llvm.fabs.f64(double %66)
  %68 = load double, ptr %16, align 8, !tbaa !88
  %69 = fcmp ogt double %67, %68
  br i1 %69, label %70, label %73

70:                                               ; preds = %46
  %71 = load double, ptr %15, align 8, !tbaa !88
  %72 = call double @llvm.fabs.f64(double %71)
  br label %75

73:                                               ; preds = %46
  %74 = load double, ptr %16, align 8, !tbaa !88
  br label %75

75:                                               ; preds = %73, %70
  %76 = phi double [ %72, %70 ], [ %74, %73 ]
  %77 = fmul double %65, %76
  %78 = load double, ptr %17, align 8, !tbaa !88
  %79 = fmul double %77, %78
  store double %79, ptr %13, align 8, !tbaa !88
  %80 = load double, ptr %13, align 8, !tbaa !88
  %81 = load ptr, ptr %19, align 8, !tbaa !86
  %82 = load i64, ptr %23, align 8, !tbaa !114
  %83 = getelementptr inbounds double, ptr %81, i64 %82
  %84 = load double, ptr %83, align 8, !tbaa !88
  %85 = fadd double %84, %80
  store double %85, ptr %83, align 8, !tbaa !88
  %86 = load ptr, ptr %10, align 8, !tbaa !11
  %87 = getelementptr inbounds nuw %struct.KINMemRec, ptr %86, i32 0, i32 2
  %88 = load ptr, ptr %87, align 8, !tbaa !54
  %89 = load ptr, ptr %7, align 8, !tbaa !85
  %90 = load ptr, ptr %21, align 8, !tbaa !85
  %91 = load ptr, ptr %10, align 8, !tbaa !11
  %92 = getelementptr inbounds nuw %struct.KINMemRec, ptr %91, i32 0, i32 3
  %93 = load ptr, ptr %92, align 8, !tbaa !60
  %94 = call i32 %88(ptr noundef %89, ptr noundef %90, ptr noundef %93)
  store i32 %94, ptr %26, align 4, !tbaa !20
  %95 = load ptr, ptr %25, align 8, !tbaa !45
  %96 = getelementptr inbounds nuw %struct.KINLsMemRec, ptr %95, i32 0, i32 9
  %97 = load i64, ptr %96, align 8, !tbaa !101
  %98 = add nsw i64 %97, 1
  store i64 %98, ptr %96, align 8, !tbaa !101
  %99 = load i32, ptr %26, align 4, !tbaa !20
  %100 = icmp ne i32 %99, 0
  br i1 %100, label %101, label %102

101:                                              ; preds = %75
  br label %118

102:                                              ; preds = %75
  %103 = load double, ptr %15, align 8, !tbaa !88
  %104 = load ptr, ptr %19, align 8, !tbaa !86
  %105 = load i64, ptr %23, align 8, !tbaa !114
  %106 = getelementptr inbounds double, ptr %104, i64 %105
  store double %103, ptr %106, align 8, !tbaa !88
  %107 = load double, ptr %13, align 8, !tbaa !88
  %108 = fdiv double 1.000000e+00, %107
  store double %108, ptr %14, align 8, !tbaa !88
  %109 = load double, ptr %14, align 8, !tbaa !88
  %110 = load ptr, ptr %21, align 8, !tbaa !85
  %111 = load double, ptr %14, align 8, !tbaa !88
  %112 = fneg double %111
  %113 = load ptr, ptr %8, align 8, !tbaa !85
  %114 = load ptr, ptr %22, align 8, !tbaa !85
  call void @N_VLinearSum(double noundef %109, ptr noundef %110, double noundef %112, ptr noundef %113, ptr noundef %114)
  br label %115

115:                                              ; preds = %102
  %116 = load i64, ptr %23, align 8, !tbaa !114
  %117 = add nsw i64 %116, 1
  store i64 %117, ptr %23, align 8, !tbaa !114
  br label %42

118:                                              ; preds = %101, %42
  %119 = load ptr, ptr %18, align 8, !tbaa !86
  %120 = load ptr, ptr %12, align 8, !tbaa !85
  call void @N_VSetArrayPointer(ptr noundef %119, ptr noundef %120)
  %121 = load i32, ptr %26, align 4, !tbaa !20
  call void @llvm.lifetime.end.p0(i64 4, ptr %26) #7
  call void @llvm.lifetime.end.p0(i64 8, ptr %25) #7
  call void @llvm.lifetime.end.p0(i64 8, ptr %24) #7
  call void @llvm.lifetime.end.p0(i64 8, ptr %23) #7
  call void @llvm.lifetime.end.p0(i64 8, ptr %22) #7
  call void @llvm.lifetime.end.p0(i64 8, ptr %21) #7
  call void @llvm.lifetime.end.p0(i64 8, ptr %20) #7
  call void @llvm.lifetime.end.p0(i64 8, ptr %19) #7
  call void @llvm.lifetime.end.p0(i64 8, ptr %18) #7
  call void @llvm.lifetime.end.p0(i64 8, ptr %17) #7
  call void @llvm.lifetime.end.p0(i64 8, ptr %16) #7
  call void @llvm.lifetime.end.p0(i64 8, ptr %15) #7
  call void @llvm.lifetime.end.p0(i64 8, ptr %14) #7
  call void @llvm.lifetime.end.p0(i64 8, ptr %13) #7
  ret i32 %121
}