; Function Attrs: nounwind uwtable
define i32 @kinLsDenseDQJac(ptr noundef %0, ptr noundef %1, ptr noundef %2, ptr noundef readonly captures(none) %3, ptr noundef %4, ptr noundef %5) local_unnamed_addr #0 {
  %7 = getelementptr inbounds nuw i8, ptr %3, i64 584
  %8 = load ptr, ptr %7, align 8, !tbaa !55
  %9 = tail call i64 @SUNDenseMatrix_Columns(ptr noundef %2) #13
  %10 = tail call ptr @N_VGetArrayPointer(ptr noundef %5) #13
  %11 = tail call ptr @N_VGetArrayPointer(ptr noundef %0) #13
  %12 = getelementptr inbounds nuw i8, ptr %3, i64 296
  %13 = load ptr, ptr %12, align 8, !tbaa !88
  %14 = tail call ptr @N_VGetArrayPointer(ptr noundef %13) #13
  %15 = icmp sgt i64 %9, 0
  br i1 %15, label %.lr.ph, label %._crit_edge

.lr.ph:                                           ; preds = %6
  %16 = getelementptr inbounds nuw i8, ptr %3, i64 136
  %17 = getelementptr inbounds nuw i8, ptr %3, i64 16
  %18 = getelementptr inbounds nuw i8, ptr %3, i64 24
  %19 = getelementptr inbounds nuw i8, ptr %8, i64 64
  br label %20

20:                                               ; preds = %.lr.ph, %41
  %.04447 = phi i64 [ 0, %.lr.ph ], [ %44, %41 ]
  %21 = tail call ptr @SUNDenseMatrix_Column(ptr noundef %2, i64 noundef %.04447) #13
  tail call void @N_VSetArrayPointer(ptr noundef %21, ptr noundef %5) #13
  %22 = getelementptr inbounds nuw double, ptr %11, i64 %.04447
  %23 = load double, ptr %22, align 8, !tbaa !84
  %24 = getelementptr inbounds nuw double, ptr %14, i64 %.04447
  %25 = load double, ptr %24, align 8, !tbaa !84
  %26 = fdiv double 1.000000e+00, %25
  %27 = fcmp oge double %23, 0.000000e+00
  %28 = load double, ptr %16, align 8, !tbaa !89
  %29 = tail call double @llvm.fabs.f64(double %23)
  %30 = fcmp ogt double %29, %26
  %31 = select i1 %30, double %29, double %26
  %32 = fmul double %28, %31
  %33 = fneg double %32
  %34 = select i1 %27, double %32, double %33
  %35 = fadd double %23, %34
  store double %35, ptr %22, align 8, !tbaa !84
  %36 = load ptr, ptr %17, align 8, !tbaa !46
  %37 = load ptr, ptr %18, align 8, !tbaa !49
  %38 = tail call i32 %36(ptr noundef %0, ptr noundef %4, ptr noundef %37) #13
  %39 = load i64, ptr %19, align 8, !tbaa !90
  %40 = add nsw i64 %39, 1
  store i64 %40, ptr %19, align 8, !tbaa !90
  %.not = icmp eq i32 %38, 0
  br i1 %.not, label %41, label %._crit_edge

41:                                               ; preds = %20
  store double %23, ptr %22, align 8, !tbaa !84
  %42 = fdiv double 1.000000e+00, %34
  %43 = fneg double %42
  tail call void @N_VLinearSum(double noundef %42, ptr noundef %4, double noundef %43, ptr noundef %1, ptr noundef %5) #13
  %44 = add nuw nsw i64 %.04447, 1
  %exitcond.not = icmp eq i64 %44, %9
  br i1 %exitcond.not, label %._crit_edge, label %20

._crit_edge:                                      ; preds = %41, %20, %6
  %.1 = phi i32 [ 0, %6 ], [ %38, %20 ], [ 0, %41 ]
  tail call void @N_VSetArrayPointer(ptr noundef %10, ptr noundef %5) #13
  ret i32 %.1
}